; Function Attrs: mustprogress uwtable
define dso_local noundef zeroext i1 @_ZNK3net22QuicCryptoServerConfig31ValidateExpectedLeafCertificateERKNS_22CryptoHandshakeMessageERKNS_15QuicCryptoProofE(ptr nocapture noundef nonnull readnone align 8 dereferenceable(405) %this, ptr noundef nonnull align 8 dereferenceable(72) %client_hello, ptr nocapture noundef nonnull readonly align 8 dereferenceable(112) %crypto_proof) local_unnamed_addr #0 align 2 {
entry:
  %hash_from_client = alloca i64, align 8
  %chain = getelementptr inbounds i8, ptr %crypto_proof, i64 32
  %0 = load ptr, ptr %chain, align 8
  %certs = getelementptr inbounds i8, ptr %0, i64 16
  %1 = load ptr, ptr %certs, align 8
  %_M_finish.i.i = getelementptr inbounds i8, ptr %0, i64 24
  %2 = load ptr, ptr %_M_finish.i.i, align 8
  %cmp.i.i = icmp eq ptr %1, %2
  br i1 %cmp.i.i, label %return, label %if.end

if.end:                                           ; preds = %entry
  %call3 = call noundef i32 @_ZNK3net22CryptoHandshakeMessage9GetUint64EjPm(ptr noundef nonnull align 8 dereferenceable(72) %client_hello, i32 noundef 1413696600, ptr noundef nonnull %hash_from_client)
  %cmp.not = icmp eq i32 %call3, 0
  br i1 %cmp.not, label %if.end5, label %return

if.end5:                                          ; preds = %if.end
  %3 = load ptr, ptr %chain, align 8
  %certs8 = getelementptr inbounds i8, ptr %3, i64 16
  %_M_finish.i.i.i = getelementptr inbounds i8, ptr %3, i64 24
  %4 = load ptr, ptr %_M_finish.i.i.i, align 8
  %5 = load ptr, ptr %certs8, align 8
  %cmp.not.i.i.not = icmp eq ptr %4, %5
  br i1 %cmp.not.i.i.not, label %if.then.i.i, label %_ZNKSt6vectorINSt7__cxx1112basic_stringIcSt11char_traitsIcESaIcEEESaIS5_EE2atEm.exit

if.then.i.i:                                      ; preds = %if.end5
  call void (ptr, ...) @_ZSt24__throw_out_of_range_fmtPKcz(ptr noundef nonnull @.str.62, i64 noundef 0, i64 noundef 0) #21
  unreachable

_ZNKSt6vectorINSt7__cxx1112basic_stringIcSt11char_traitsIcESaIcEEESaIS5_EE2atEm.exit: ; preds = %if.end5
  %call10 = call noundef i64 @_ZN3net11CryptoUtils19ComputeLeafCertHashERKNSt7__cxx1112basic_stringIcSt11char_traitsIcESaIcEEE(ptr noundef nonnull align 8 dereferenceable(32) %5)
  %6 = load i64, ptr %hash_from_client, align 8
  %cmp11 = icmp eq i64 %call10, %6
  br label %return

return:                                           ; preds = %if.end, %entry, %_ZNKSt6vectorINSt7__cxx1112basic_stringIcSt11char_traitsIcESaIcEEESaIS5_EE2atEm.exit
  %retval.0 = phi i1 [ %cmp11, %_ZNKSt6vectorINSt7__cxx1112basic_stringIcSt11char_traitsIcESaIcEEESaIS5_EE2atEm.exit ], [ false, %entry ], [ false, %if.end ]
  ret i1 %retval.0
}